; Function Attrs: mustprogress uwtable
define void @_ZN5faiss17IndexPreTransformC2EPNS_15VectorTransformEPNS_5IndexE(ptr noundef nonnull align 8 dereferenceable(73) initializes((0, 12), (16, 26), (28, 36), (40, 73)) %0, ptr noundef %1, ptr noundef %2) unnamed_addr #1 align 2 personality ptr @__gxx_personality_v0 {
  %4 = getelementptr inbounds nuw i8, ptr %2, i64 8
  %5 = load i32, ptr %4, align 8, !tbaa !59
  %6 = getelementptr inbounds nuw i8, ptr %2, i64 28
  %7 = load i32, ptr %6, align 4, !tbaa !80
  %8 = getelementptr inbounds nuw i8, ptr %0, i64 8
  store i32 %5, ptr %8, align 8, !tbaa !59
  %9 = getelementptr inbounds nuw i8, ptr %0, i64 16
  store i64 0, ptr %9, align 8, !tbaa !52
  %10 = getelementptr inbounds nuw i8, ptr %0, i64 24
  store i8 0, ptr %10, align 8, !tbaa !32
  %11 = getelementptr inbounds nuw i8, ptr %0, i64 25
  store i8 1, ptr %11, align 1, !tbaa !21
  %12 = getelementptr inbounds nuw i8, ptr %0, i64 28
  store i32 %7, ptr %12, align 4, !tbaa !80
  %13 = getelementptr inbounds nuw i8, ptr %0, i64 32
  store float 0.000000e+00, ptr %13, align 8, !tbaa !81
  store ptr getelementptr inbounds nuw inrange(-16, 184) (i8, ptr @_ZTVN5faiss17IndexPreTransformE, i64 16), ptr %0, align 8, !tbaa !42
  %14 = getelementptr inbounds nuw i8, ptr %0, i64 40
  tail call void @llvm.memset.p0.i64(ptr noundef nonnull align 8 dereferenceable(24) %14, i8 0, i64 24, i1 false)
  %15 = getelementptr inbounds nuw i8, ptr %0, i64 64
  store ptr %2, ptr %15, align 8, !tbaa !4
  %16 = getelementptr inbounds nuw i8, ptr %0, i64 72
  store i8 0, ptr %16, align 8, !tbaa !82
  %17 = getelementptr inbounds nuw i8, ptr %2, i64 25
  %18 = load i8, ptr %17, align 1, !tbaa !21, !range !22, !noundef !23
  store i8 %18, ptr %11, align 1, !tbaa !21
  %19 = getelementptr inbounds nuw i8, ptr %2, i64 16
  %20 = load i64, ptr %19, align 8, !tbaa !52
  store i64 %20, ptr %9, align 8, !tbaa !52
  invoke void @_ZN5faiss17IndexPreTransform17prepend_transformEPNS_15VectorTransformE(ptr noundef nonnull align 8 dereferenceable(73) %0, ptr noundef %1)
          to label %21 unwind label %22

21:                                               ; preds = %3
  ret void

22:                                               ; preds = %3
  %23 = landingpad { ptr, i32 }
          cleanup
  %24 = load ptr, ptr %14, align 8, !tbaa !25
  %.not.i.i.i = icmp eq ptr %24, null
  br i1 %.not.i.i.i, label %_ZNSt6vectorIPN5faiss15VectorTransformESaIS2_EED2Ev.exit, label %25

25:                                               ; preds = %22
  %26 = getelementptr inbounds nuw i8, ptr %0, i64 56
  %27 = load ptr, ptr %26, align 8, !tbaa !83
  %28 = ptrtoint ptr %27 to i64
  %29 = ptrtoint ptr %24 to i64
  %30 = sub i64 %28, %29
  tail call void @_ZdlPvm(ptr noundef nonnull %24, i64 noundef %30) #21
  br label %_ZNSt6vectorIPN5faiss15VectorTransformESaIS2_EED2Ev.exit

_ZNSt6vectorIPN5faiss15VectorTransformESaIS2_EED2Ev.exit: ; preds = %22, %25
  tail call void @_ZN5faiss5IndexD2Ev(ptr noundef nonnull align 8 dereferenceable(36) %0) #20
  resume { ptr, i32 } %23
}